target datalayout = "e-m:e-p270:32:32-p271:32:32-p272:64:64-i64:64-i128:128-f80:128-n8:16:32:64-S128"
target triple = "x86_64-pc-linux-gnu"

%"struct.faiss::Index" = type <{ ptr, i32, [4 x i8], i64, i8, i8, [2 x i8], i32, float, [4 x i8] }>
%"struct.faiss::IndexAdditiveQuantizerFastScan" = type { %"struct.faiss::IndexFastScan", ptr, i8, i32, i64 }
%"struct.faiss::IndexFastScan" = type { %"struct.faiss::Index.base", i32, i32, i32, i32, i64, i64, i64, i64, i64, i64, %"struct.faiss::AlignedTable", ptr }
%"struct.faiss::Index.base" = type <{ ptr, i32, [4 x i8], i64, i8, i8, [2 x i8], i32, float }>
%"struct.faiss::AlignedTable" = type { %"struct.faiss::AlignedTableTightAlloc", i64 }
%"struct.faiss::AlignedTableTightAlloc" = type { ptr, i64 }
%"struct.faiss::IndexFlatCodes" = type { %"struct.faiss::Index.base", i64, %"class.std::vector.8" }
%"class.std::vector.8" = type { %"struct.std::_Vector_base.9" }
%"struct.std::_Vector_base.9" = type { %"struct.std::_Vector_base<unsigned char, std::allocator<unsigned char>>::_Vector_impl" }
%"struct.std::_Vector_base<unsigned char, std::allocator<unsigned char>>::_Vector_impl" = type { %"struct.std::_Vector_base<unsigned char, std::allocator<unsigned char>>::_Vector_impl_data" }
%"struct.std::_Vector_base<unsigned char, std::allocator<unsigned char>>::_Vector_impl_data" = type { ptr, ptr, ptr }
%"struct.faiss::IndexAdditiveQuantizer" = type { %"struct.faiss::IndexFlatCodes", ptr }

; Function Attrs: mustprogress nounwind uwtable
define linkonce_odr noundef ptr @_ZN5faiss22AlignedTableTightAllocIhLi32EE3getEv(ptr noundef nonnull align 8 dereferenceable(16) %0) #0 comdat align 2 {
  %2 = alloca ptr, align 8
  store ptr %0, ptr %2, align 8, !tbaa !83
  %3 = load ptr, ptr %2, align 8
  %4 = getelementptr inbounds nuw %"struct.faiss::AlignedTableTightAlloc", ptr %3, i32 0, i32 0
  %5 = load ptr, ptr %4, align 8, !tbaa !85
  ret ptr %5
}

; Function Attrs: mustprogress nounwind uwtable
define linkonce_odr noundef ptr @_ZNKSt6vectorIhSaIhEE11_M_data_ptrIhEEPT_S4_(ptr noundef nonnull align 8 dereferenceable(24) %0, ptr noundef %1) #0 comdat align 2 {
  %3 = alloca ptr, align 8
  %4 = alloca ptr, align 8
  store ptr %0, ptr %3, align 8, !tbaa !119
  store ptr %1, ptr %4, align 8, !tbaa !69
  %5 = load ptr, ptr %4, align 8, !tbaa !69
  ret ptr %5
}

; Function Attrs: mustprogress uwtable
define linkonce_odr noundef ptr @_ZN5faiss12AlignedTableIhLi32EE3getEv(ptr noundef nonnull align 8 dereferenceable(24) %0) #1 comdat align 2 {
  %2 = alloca ptr, align 8
  store ptr %0, ptr %2, align 8, !tbaa !81
  %3 = load ptr, ptr %2, align 8
  %4 = getelementptr inbounds nuw %"struct.faiss::AlignedTable", ptr %3, i32 0, i32 0
  %5 = call noundef ptr @_ZN5faiss22AlignedTableTightAllocIhLi32EE3getEv(ptr noundef nonnull align 8 dereferenceable(16) %4)
  ret ptr %5
}

; Function Attrs: inlinehint mustprogress nounwind uwtable
define linkonce_odr noundef i64 @_ZN5faiss7roundupEmm(i64 noundef %0, i64 noundef %1) #3 comdat {
  %3 = alloca i64, align 8
  %4 = alloca i64, align 8
  store i64 %0, ptr %3, align 8, !tbaa !9
  store i64 %1, ptr %4, align 8, !tbaa !9
  %5 = load i64, ptr %3, align 8, !tbaa !9
  %6 = load i64, ptr %4, align 8, !tbaa !9
  %7 = add i64 %5, %6
  %8 = sub i64 %7, 1
  %9 = load i64, ptr %4, align 8, !tbaa !9
  %10 = udiv i64 %8, %9
  %11 = load i64, ptr %4, align 8, !tbaa !9
  %12 = mul i64 %10, %11
  ret i64 %12
}

; Function Attrs: mustprogress nounwind uwtable
define linkonce_odr noundef ptr @_ZNKSt6vectorIhSaIhEE4dataEv(ptr noundef nonnull align 8 dereferenceable(24) %0) #0 comdat align 2 {
  %2 = alloca ptr, align 8
  store ptr %0, ptr %2, align 8, !tbaa !119
  %3 = load ptr, ptr %2, align 8
  %4 = getelementptr inbounds nuw %"struct.std::_Vector_base.9", ptr %3, i32 0, i32 0
  %5 = getelementptr inbounds nuw %"struct.std::_Vector_base<unsigned char, std::allocator<unsigned char>>::_Vector_impl_data", ptr %4, i32 0, i32 0
  %6 = load ptr, ptr %5, align 8, !tbaa !121
  %7 = call noundef ptr @_ZNKSt6vectorIhSaIhEE11_M_data_ptrIhEEPT_S4_(ptr noundef nonnull align 8 dereferenceable(24) %3, ptr noundef %6) #11
  ret ptr %7
}

; Function Attrs: mustprogress uwtable
define void @_ZN5faiss30IndexAdditiveQuantizerFastScanC2ERKNS_22IndexAdditiveQuantizerEi(ptr noundef nonnull align 8 dereferenceable(160) %0, ptr noundef nonnull align 8 dereferenceable(80) %1, i32 noundef %2) unnamed_addr #1 align 2 personality ptr @__gxx_personality_v0 {
  %4 = alloca ptr, align 8
  %5 = alloca ptr, align 8
  %6 = alloca i32, align 4
  %7 = alloca ptr, align 8
  %8 = alloca i32, align 4
  store ptr %0, ptr %4, align 8, !tbaa !4
  store ptr %1, ptr %5, align 8, !tbaa !111
  store i32 %2, ptr %6, align 4, !tbaa !21
  %9 = load ptr, ptr %4, align 8
  call void @_ZN5faiss13IndexFastScanC2Ev(ptr noundef nonnull align 8 dereferenceable(136) %9)
  store ptr getelementptr inbounds inrange(-16, 200) ({ [27 x ptr] }, ptr @_ZTVN5faiss30IndexAdditiveQuantizerFastScanE, i32 0, i32 0, i32 2), ptr %9, align 8, !tbaa !57
  %10 = getelementptr inbounds nuw %"struct.faiss::IndexAdditiveQuantizerFastScan", ptr %9, i32 0, i32 2
  store i8 1, ptr %10, align 8, !tbaa !63
  %11 = getelementptr inbounds nuw %"struct.faiss::IndexAdditiveQuantizerFastScan", ptr %9, i32 0, i32 3
  store i32 1, ptr %11, align 4, !tbaa !64
  %12 = getelementptr inbounds nuw %"struct.faiss::IndexAdditiveQuantizerFastScan", ptr %9, i32 0, i32 4
  store i64 0, ptr %12, align 8, !tbaa !23
  %13 = load ptr, ptr %5, align 8, !tbaa !111
  %14 = getelementptr inbounds nuw %"struct.faiss::IndexAdditiveQuantizer", ptr %13, i32 0, i32 1
  %15 = load ptr, ptr %14, align 8, !tbaa !113
  %16 = load ptr, ptr %5, align 8, !tbaa !111
  %17 = getelementptr inbounds nuw %"struct.faiss::Index", ptr %16, i32 0, i32 7
  %18 = load i32, ptr %17, align 4, !tbaa !59
  %19 = load i32, ptr %6, align 4, !tbaa !21
  invoke void @_ZN5faiss30IndexAdditiveQuantizerFastScan4initEPNS_17AdditiveQuantizerENS_10MetricTypeEi(ptr noundef nonnull align 8 dereferenceable(160) %9, ptr noundef %15, i32 noundef %18, i32 noundef %19)
          to label %20 unwind label %66

20:                                               ; preds = %3
  %21 = load ptr, ptr %5, align 8, !tbaa !111
  %22 = getelementptr inbounds nuw %"struct.faiss::Index", ptr %21, i32 0, i32 3
  %23 = load i64, ptr %22, align 8, !tbaa !115
  %24 = getelementptr inbounds nuw %"struct.faiss::Index", ptr %9, i32 0, i32 3
  store i64 %23, ptr %24, align 8, !tbaa !115
  %25 = load ptr, ptr %5, align 8, !tbaa !111
  %26 = getelementptr inbounds nuw %"struct.faiss::Index", ptr %25, i32 0, i32 5
  %27 = load i8, ptr %26, align 1, !tbaa !13, !range !19, !noundef !20
  %28 = trunc i8 %27 to i1
  %29 = getelementptr inbounds nuw %"struct.faiss::Index", ptr %9, i32 0, i32 5
  %30 = zext i1 %28 to i8
  store i8 %30, ptr %29, align 1, !tbaa !13
  %31 = load ptr, ptr %5, align 8, !tbaa !111
  %32 = getelementptr inbounds nuw %"struct.faiss::IndexFlatCodes", ptr %31, i32 0, i32 2
  %33 = call noundef ptr @_ZNKSt6vectorIhSaIhEE4dataEv(ptr noundef nonnull align 8 dereferenceable(24) %32) #11
  %34 = getelementptr inbounds nuw %"struct.faiss::IndexFastScan", ptr %9, i32 0, i32 12
  store ptr %33, ptr %34, align 8, !tbaa !116
  %35 = getelementptr inbounds nuw %"struct.faiss::Index", ptr %9, i32 0, i32 3
  %36 = load i64, ptr %35, align 8, !tbaa !115
  %37 = load i32, ptr %6, align 4, !tbaa !21
  %38 = sext i32 %37 to i64
  %39 = invoke noundef i64 @_ZN5faiss7roundupEmm(i64 noundef %36, i64 noundef %38)
          to label %40 unwind label %66

40:                                               ; preds = %20
  %41 = getelementptr inbounds nuw %"struct.faiss::IndexFastScan", ptr %9, i32 0, i32 9
  store i64 %39, ptr %41, align 8, !tbaa !117
  %42 = getelementptr inbounds nuw %"struct.faiss::IndexFastScan", ptr %9, i32 0, i32 11
  %43 = getelementptr inbounds nuw %"struct.faiss::IndexFastScan", ptr %9, i32 0, i32 9
  %44 = load i64, ptr %43, align 8, !tbaa !117
  %45 = getelementptr inbounds nuw %"struct.faiss::IndexFastScan", ptr %9, i32 0, i32 10
  %46 = load i64, ptr %45, align 8, !tbaa !118
  %47 = mul i64 %44, %46
  %48 = udiv i64 %47, 2
  invoke void @_ZN5faiss12AlignedTableIhLi32EE6resizeEm(ptr noundef nonnull align 8 dereferenceable(24) %42, i64 noundef %48)
          to label %49 unwind label %66

49:                                               ; preds = %40
  %50 = getelementptr inbounds nuw %"struct.faiss::IndexFastScan", ptr %9, i32 0, i32 12
  %51 = load ptr, ptr %50, align 8, !tbaa !116
  %52 = getelementptr inbounds nuw %"struct.faiss::Index", ptr %9, i32 0, i32 3
  %53 = load i64, ptr %52, align 8, !tbaa !115
  %54 = getelementptr inbounds nuw %"struct.faiss::IndexFastScan", ptr %9, i32 0, i32 5
  %55 = load i64, ptr %54, align 8, !tbaa !79
  %56 = getelementptr inbounds nuw %"struct.faiss::IndexFastScan", ptr %9, i32 0, i32 9
  %57 = load i64, ptr %56, align 8, !tbaa !117
  %58 = load i32, ptr %6, align 4, !tbaa !21
  %59 = sext i32 %58 to i64
  %60 = getelementptr inbounds nuw %"struct.faiss::IndexFastScan", ptr %9, i32 0, i32 10
  %61 = load i64, ptr %60, align 8, !tbaa !118
  %62 = getelementptr inbounds nuw %"struct.faiss::IndexFastScan", ptr %9, i32 0, i32 11
  %63 = invoke noundef ptr @_ZN5faiss12AlignedTableIhLi32EE3getEv(ptr noundef nonnull align 8 dereferenceable(24) %62)
          to label %64 unwind label %66

64:                                               ; preds = %49
  invoke void @_ZN5faiss14pq4_pack_codesEPKhmmmmmPh(ptr noundef %51, i64 noundef %53, i64 noundef %55, i64 noundef %57, i64 noundef %59, i64 noundef %61, ptr noundef %63)
          to label %65 unwind label %66

65:                                               ; preds = %64
  ret void

66:                                               ; preds = %64, %49, %40, %20, %3
  %67 = landingpad { ptr, i32 }
          cleanup
  %68 = extractvalue { ptr, i32 } %67, 0
  store ptr %68, ptr %7, align 8
  %69 = extractvalue { ptr, i32 } %67, 1
  store i32 %69, ptr %8, align 4
  call void @_ZN5faiss13IndexFastScanD2Ev(ptr noundef nonnull align 8 dereferenceable(136) %9) #11
  br label %70

70:                                               ; preds = %66
  %71 = load ptr, ptr %7, align 8
  %72 = load i32, ptr %8, align 4
  %73 = insertvalue { ptr, i32 } poison, ptr %71, 0
  %74 = insertvalue { ptr, i32 } %73, i32 %72, 1
  resume { ptr, i32 } %74
}