; Function Attrs: mustprogress uwtable
define void @_ZN5faiss30IndexAdditiveQuantizerFastScanC2ERKNS_22IndexAdditiveQuantizerEi(ptr noundef nonnull align 8 dereferenceable(160) %0, ptr noundef nonnull readonly align 8 captures(none) dereferenceable(80) %1, i32 noundef %2) unnamed_addr #1 align 2 personality ptr @__gxx_personality_v0 {
  tail call void @_ZN5faiss13IndexFastScanC2Ev(ptr noundef nonnull align 8 dereferenceable(136) %0)
  store ptr getelementptr inbounds nuw inrange(-16, 200) (i8, ptr @_ZTVN5faiss30IndexAdditiveQuantizerFastScanE, i64 16), ptr %0, align 8, !tbaa !53
  %4 = getelementptr inbounds nuw i8, ptr %0, i64 144
  store i8 1, ptr %4, align 8, !tbaa !62
  %5 = getelementptr inbounds nuw i8, ptr %0, i64 148
  store i32 1, ptr %5, align 4, !tbaa !76
  %6 = getelementptr inbounds nuw i8, ptr %0, i64 152
  store i64 0, ptr %6, align 8, !tbaa !17
  %7 = getelementptr inbounds nuw i8, ptr %1, i64 72
  %8 = load ptr, ptr %7, align 8, !tbaa !84
  %9 = getelementptr inbounds nuw i8, ptr %1, i64 28
  %10 = load i32, ptr %9, align 4, !tbaa !55
  invoke void @_ZN5faiss30IndexAdditiveQuantizerFastScan4initEPNS_17AdditiveQuantizerENS_10MetricTypeEi(ptr noundef nonnull align 8 dereferenceable(160) %0, ptr noundef %8, i32 noundef %10, i32 noundef %2)
          to label %11 unwind label %41

11:                                               ; preds = %3
  %12 = getelementptr inbounds nuw i8, ptr %1, i64 16
  %13 = load i64, ptr %12, align 8, !tbaa !86
  %14 = getelementptr inbounds nuw i8, ptr %0, i64 16
  store i64 %13, ptr %14, align 8, !tbaa !86
  %15 = getelementptr inbounds nuw i8, ptr %1, i64 25
  %16 = load i8, ptr %15, align 1, !tbaa !4, !range !13, !noundef !14
  %17 = getelementptr inbounds nuw i8, ptr %0, i64 25
  store i8 %16, ptr %17, align 1, !tbaa !4
  %18 = getelementptr inbounds nuw i8, ptr %1, i64 48
  %19 = load ptr, ptr %18, align 8, !tbaa !87
  %20 = getelementptr inbounds nuw i8, ptr %0, i64 128
  store ptr %19, ptr %20, align 8, !tbaa !88
  %21 = sext i32 %2 to i64
  %22 = add nsw i64 %21, -1
  %23 = add i64 %22, %13
  %24 = urem i64 %23, %21
  %25 = sub nuw i64 %23, %24
  %26 = getelementptr inbounds nuw i8, ptr %0, i64 88
  store i64 %25, ptr %26, align 8, !tbaa !89
  %27 = getelementptr inbounds nuw i8, ptr %0, i64 104
  %28 = getelementptr inbounds nuw i8, ptr %0, i64 96
  %29 = load i64, ptr %28, align 8, !tbaa !90
  %30 = mul i64 %29, %25
  %31 = lshr i64 %30, 1
  invoke void @_ZN5faiss12AlignedTableIhLi32EE6resizeEm(ptr noundef nonnull align 8 dereferenceable(24) %27, i64 noundef %31)
          to label %32 unwind label %41

32:                                               ; preds = %11
  %33 = load ptr, ptr %20, align 8, !tbaa !88
  %34 = load i64, ptr %14, align 8, !tbaa !86
  %35 = getelementptr inbounds nuw i8, ptr %0, i64 56
  %36 = load i64, ptr %35, align 8, !tbaa !81
  %37 = load i64, ptr %26, align 8, !tbaa !89
  %38 = load i64, ptr %28, align 8, !tbaa !90
  %39 = load ptr, ptr %27, align 8, !tbaa !83
  invoke void @_ZN5faiss14pq4_pack_codesEPKhmmmmmPh(ptr noundef %33, i64 noundef %34, i64 noundef %36, i64 noundef %37, i64 noundef %21, i64 noundef %38, ptr noundef %39)
          to label %40 unwind label %41

40:                                               ; preds = %32
  ret void

41:                                               ; preds = %32, %11, %3
  %42 = landingpad { ptr, i32 }
          cleanup
  tail call void @_ZN5faiss13IndexFastScanD2Ev(ptr noundef nonnull align 8 dereferenceable(136) %0) #14
  resume { ptr, i32 } %42
}